target datalayout = "e-m:e-p270:32:32-p271:32:32-p272:64:64-i64:64-i128:128-f80:128-n8:16:32:64-S128"
target triple = "x86_64-pc-linux-gnu"

%struct.hwloc_topology = type { i32, i32, i32, ptr, ptr, i64, [20 x i32], [20 x i32], i64, i64, i32, ptr, i64, ptr, i64, [6 x %struct.hwloc_special_level_s], ptr, ptr, %struct.hwloc_binding_hooks, %struct.hwloc_topology_support, %struct.hwloc_infos_s, ptr, ptr, i32, ptr, ptr, i32, i32, ptr, i32, i32, ptr, i32, i32, i32, [5 x float], i32, ptr, ptr, i32, i32, ptr, i32, %struct.hwloc_numanode_attr_s, i32, i32, ptr, i64, i32, ptr, ptr, ptr }
%struct.hwloc_special_level_s = type { i32, ptr, ptr, ptr }
%struct.hwloc_binding_hooks = type { ptr, ptr, ptr, ptr, ptr, ptr, ptr, ptr, ptr, ptr, ptr, ptr, ptr, ptr, ptr, ptr, ptr, ptr, ptr, ptr, ptr, ptr, ptr, ptr }
%struct.hwloc_topology_support = type { ptr, ptr, ptr, ptr }
%struct.hwloc_infos_s = type { ptr, i32, i32 }
%struct.hwloc_numanode_attr_s = type { i64, i32, ptr }
%struct.hwloc_internal_memattr_s = type { ptr, i64, i32, i32, ptr }

; Function Attrs: nounwind uwtable
define internal void @hwloc__setup_memattr(ptr noundef %0, ptr noundef %1, i64 noundef %2, i64 noundef %3) #0 {
  %5 = alloca ptr, align 8
  %6 = alloca ptr, align 8
  %7 = alloca i64, align 8
  %8 = alloca i64, align 8
  store ptr %0, ptr %5, align 8, !tbaa !34
  store ptr %1, ptr %6, align 8, !tbaa !35
  store i64 %2, ptr %7, align 8, !tbaa !37
  store i64 %3, ptr %8, align 8, !tbaa !37
  %9 = load ptr, ptr %6, align 8, !tbaa !35
  %10 = load ptr, ptr %5, align 8, !tbaa !34
  %11 = getelementptr inbounds nuw %struct.hwloc_internal_memattr_s, ptr %10, i32 0, i32 0
  store ptr %9, ptr %11, align 8, !tbaa !38
  %12 = load i64, ptr %7, align 8, !tbaa !37
  %13 = load ptr, ptr %5, align 8, !tbaa !34
  %14 = getelementptr inbounds nuw %struct.hwloc_internal_memattr_s, ptr %13, i32 0, i32 1
  store i64 %12, ptr %14, align 8, !tbaa !41
  %15 = load i64, ptr %8, align 8, !tbaa !37
  %16 = trunc i64 %15 to i32
  %17 = load ptr, ptr %5, align 8, !tbaa !34
  %18 = getelementptr inbounds nuw %struct.hwloc_internal_memattr_s, ptr %17, i32 0, i32 2
  store i32 %16, ptr %18, align 8, !tbaa !42
  %19 = load ptr, ptr %5, align 8, !tbaa !34
  %20 = getelementptr inbounds nuw %struct.hwloc_internal_memattr_s, ptr %19, i32 0, i32 3
  store i32 0, ptr %20, align 4, !tbaa !43
  %21 = load ptr, ptr %5, align 8, !tbaa !34
  %22 = getelementptr inbounds nuw %struct.hwloc_internal_memattr_s, ptr %21, i32 0, i32 4
  store ptr null, ptr %22, align 8, !tbaa !44
  ret void
}

; Function Attrs: nounwind uwtable
define i32 @hwloc_memattr_register(ptr noundef %0, ptr noundef %1, i64 noundef %2, ptr noundef %3) #0 {
  %5 = alloca i32, align 4
  %6 = alloca ptr, align 8
  %7 = alloca ptr, align 8
  %8 = alloca i64, align 8
  %9 = alloca ptr, align 8
  %10 = alloca ptr, align 8
  %11 = alloca ptr, align 8
  %12 = alloca i32, align 4
  %13 = alloca i32, align 4
  store ptr %0, ptr %6, align 8, !tbaa !3
  store ptr %1, ptr %7, align 8, !tbaa !35
  store i64 %2, ptr %8, align 8, !tbaa !37
  store ptr %3, ptr %9, align 8, !tbaa !69
  call void @llvm.lifetime.start.p0(i64 8, ptr %10) #14
  call void @llvm.lifetime.start.p0(i64 8, ptr %11) #14
  call void @llvm.lifetime.start.p0(i64 4, ptr %12) #14
  %14 = load i64, ptr %8, align 8, !tbaa !37
  %15 = and i64 %14, -8
  %16 = icmp ne i64 %15, 0
  br i1 %16, label %17, label %19

17:                                               ; preds = %4
  %18 = call ptr @__errno_location() #16
  store i32 22, ptr %18, align 4, !tbaa !45
  store i32 -1, ptr %5, align 4
  store i32 1, ptr %13, align 4
  br label %111

19:                                               ; preds = %4
  %20 = load i64, ptr %8, align 8, !tbaa !37
  %21 = and i64 %20, 3
  %22 = icmp ne i64 %21, 0
  br i1 %22, label %25, label %23

23:                                               ; preds = %19
  %24 = call ptr @__errno_location() #16
  store i32 22, ptr %24, align 4, !tbaa !45
  store i32 -1, ptr %5, align 4
  store i32 1, ptr %13, align 4
  br label %111

25:                                               ; preds = %19
  %26 = load i64, ptr %8, align 8, !tbaa !37
  %27 = and i64 %26, 3
  %28 = icmp eq i64 %27, 3
  br i1 %28, label %29, label %31

29:                                               ; preds = %25
  %30 = call ptr @__errno_location() #16
  store i32 22, ptr %30, align 4, !tbaa !45
  store i32 -1, ptr %5, align 4
  store i32 1, ptr %13, align 4
  br label %111

31:                                               ; preds = %25
  %32 = load ptr, ptr %7, align 8, !tbaa !35
  %33 = icmp ne ptr %32, null
  br i1 %33, label %36, label %34

34:                                               ; preds = %31
  %35 = call ptr @__errno_location() #16
  store i32 22, ptr %35, align 4, !tbaa !45
  store i32 -1, ptr %5, align 4
  store i32 1, ptr %13, align 4
  br label %111

36:                                               ; preds = %31
  store i32 0, ptr %12, align 4, !tbaa !45
  br label %37

37:                                               ; preds = %58, %36
  %38 = load i32, ptr %12, align 4, !tbaa !45
  %39 = load ptr, ptr %6, align 8, !tbaa !3
  %40 = getelementptr inbounds nuw %struct.hwloc_topology, ptr %39, i32 0, i32 27
  %41 = load i32, ptr %40, align 4, !tbaa !8
  %42 = icmp ult i32 %38, %41
  br i1 %42, label %43, label %61

43:                                               ; preds = %37
  %44 = load ptr, ptr %7, align 8, !tbaa !35
  %45 = load ptr, ptr %6, align 8, !tbaa !3
  %46 = getelementptr inbounds nuw %struct.hwloc_topology, ptr %45, i32 0, i32 28
  %47 = load ptr, ptr %46, align 8, !tbaa !33
  %48 = load i32, ptr %12, align 4, !tbaa !45
  %49 = zext i32 %48 to i64
  %50 = getelementptr inbounds nuw %struct.hwloc_internal_memattr_s, ptr %47, i64 %49
  %51 = getelementptr inbounds nuw %struct.hwloc_internal_memattr_s, ptr %50, i32 0, i32 0
  %52 = load ptr, ptr %51, align 8, !tbaa !38
  %53 = call i32 @strcmp(ptr noundef %44, ptr noundef %52) #15
  %54 = icmp ne i32 %53, 0
  br i1 %54, label %57, label %55

55:                                               ; preds = %43
  %56 = call ptr @__errno_location() #16
  store i32 16, ptr %56, align 4, !tbaa !45
  store i32 -1, ptr %5, align 4
  store i32 1, ptr %13, align 4
  br label %111

57:                                               ; preds = %43
  br label %58

58:                                               ; preds = %57
  %59 = load i32, ptr %12, align 4, !tbaa !45
  %60 = add i32 %59, 1
  store i32 %60, ptr %12, align 4, !tbaa !45
  br label %37, !llvm.loop !75

61:                                               ; preds = %37
  %62 = load ptr, ptr %7, align 8, !tbaa !35
  %63 = call noalias ptr @strdup(ptr noundef %62) #14
  store ptr %63, ptr %11, align 8, !tbaa !35
  %64 = load ptr, ptr %11, align 8, !tbaa !35
  %65 = icmp ne ptr %64, null
  br i1 %65, label %67, label %66

66:                                               ; preds = %61
  store i32 -1, ptr %5, align 4
  store i32 1, ptr %13, align 4
  br label %111

67:                                               ; preds = %61
  %68 = load ptr, ptr %6, align 8, !tbaa !3
  %69 = getelementptr inbounds nuw %struct.hwloc_topology, ptr %68, i32 0, i32 28
  %70 = load ptr, ptr %69, align 8, !tbaa !33
  %71 = load ptr, ptr %6, align 8, !tbaa !3
  %72 = getelementptr inbounds nuw %struct.hwloc_topology, ptr %71, i32 0, i32 27
  %73 = load i32, ptr %72, align 4, !tbaa !8
  %74 = add i32 %73, 1
  %75 = zext i32 %74 to i64
  %76 = mul i64 %75, 32
  %77 = call ptr @realloc(ptr noundef %70, i64 noundef %76) #17
  store ptr %77, ptr %10, align 8, !tbaa !34
  %78 = load ptr, ptr %10, align 8, !tbaa !34
  %79 = icmp ne ptr %78, null
  br i1 %79, label %82, label %80

80:                                               ; preds = %67
  %81 = load ptr, ptr %11, align 8, !tbaa !35
  call void @free(ptr noundef %81) #14
  store i32 -1, ptr %5, align 4
  store i32 1, ptr %13, align 4
  br label %111

82:                                               ; preds = %67
  %83 = load ptr, ptr %10, align 8, !tbaa !34
  %84 = load ptr, ptr %6, align 8, !tbaa !3
  %85 = getelementptr inbounds nuw %struct.hwloc_topology, ptr %84, i32 0, i32 27
  %86 = load i32, ptr %85, align 4, !tbaa !8
  %87 = zext i32 %86 to i64
  %88 = getelementptr inbounds nuw %struct.hwloc_internal_memattr_s, ptr %83, i64 %87
  %89 = load ptr, ptr %11, align 8, !tbaa !35
  %90 = load i64, ptr %8, align 8, !tbaa !37
  call void @hwloc__setup_memattr(ptr noundef %88, ptr noundef %89, i64 noundef %90, i64 noundef 0)
  %91 = load ptr, ptr %10, align 8, !tbaa !34
  %92 = load ptr, ptr %6, align 8, !tbaa !3
  %93 = getelementptr inbounds nuw %struct.hwloc_topology, ptr %92, i32 0, i32 27
  %94 = load i32, ptr %93, align 4, !tbaa !8
  %95 = zext i32 %94 to i64
  %96 = getelementptr inbounds nuw %struct.hwloc_internal_memattr_s, ptr %91, i64 %95
  %97 = getelementptr inbounds nuw %struct.hwloc_internal_memattr_s, ptr %96, i32 0, i32 2
  %98 = load i32, ptr %97, align 8, !tbaa !42
  %99 = or i32 %98, 2
  store i32 %99, ptr %97, align 8, !tbaa !42
  %100 = load ptr, ptr %6, align 8, !tbaa !3
  %101 = getelementptr inbounds nuw %struct.hwloc_topology, ptr %100, i32 0, i32 27
  %102 = load i32, ptr %101, align 4, !tbaa !8
  %103 = load ptr, ptr %9, align 8, !tbaa !69
  store i32 %102, ptr %103, align 4, !tbaa !45
  %104 = load ptr, ptr %6, align 8, !tbaa !3
  %105 = getelementptr inbounds nuw %struct.hwloc_topology, ptr %104, i32 0, i32 27
  %106 = load i32, ptr %105, align 4, !tbaa !8
  %107 = add i32 %106, 1
  store i32 %107, ptr %105, align 4, !tbaa !8
  %108 = load ptr, ptr %10, align 8, !tbaa !34
  %109 = load ptr, ptr %6, align 8, !tbaa !3
  %110 = getelementptr inbounds nuw %struct.hwloc_topology, ptr %109, i32 0, i32 28
  store ptr %108, ptr %110, align 8, !tbaa !33
  store i32 0, ptr %5, align 4
  store i32 1, ptr %13, align 4
  br label %111

111:                                              ; preds = %82, %80, %66, %55, %34, %29, %23, %17
  call void @llvm.lifetime.end.p0(i64 4, ptr %12) #14
  call void @llvm.lifetime.end.p0(i64 8, ptr %11) #14
  call void @llvm.lifetime.end.p0(i64 8, ptr %10) #14
  %112 = load i32, ptr %5, align 4
  ret i32 %112
}