; Function Attrs: nounwind uwtable
define range(i32 -1, 1) i32 @hwloc_memattr_register(ptr noundef captures(none) %0, ptr noundef readonly captures(address_is_null) %1, i64 noundef %2, ptr noundef writeonly captures(none) %3) local_unnamed_addr #3 {
  %.not = icmp ult i64 %2, 8
  br i1 %.not, label %7, label %5

5:                                                ; preds = %4
  %6 = tail call ptr @__errno_location() #31
  store i32 22, ptr %6, align 4, !tbaa !60
  br label %44

7:                                                ; preds = %4
  %8 = and i64 %2, 3
  switch i64 %8, label %13 [
    i64 0, label %9
    i64 3, label %11
  ]

9:                                                ; preds = %7
  %10 = tail call ptr @__errno_location() #31
  store i32 22, ptr %10, align 4, !tbaa !60
  br label %44

11:                                               ; preds = %7
  %12 = tail call ptr @__errno_location() #31
  store i32 22, ptr %12, align 4, !tbaa !60
  br label %44

13:                                               ; preds = %7
  %.not33 = icmp eq ptr %1, null
  br i1 %.not33, label %18, label %.preheader

.preheader:                                       ; preds = %13
  %14 = getelementptr inbounds nuw i8, ptr %0, i64 748
  %15 = load i32, ptr %14, align 4, !tbaa !3
  %.not41 = icmp eq i32 %15, 0
  br i1 %.not41, label %._crit_edge, label %.lr.ph

.lr.ph:                                           ; preds = %.preheader
  %16 = getelementptr inbounds nuw i8, ptr %0, i64 752
  %17 = load ptr, ptr %16, align 8, !tbaa !31
  %wide.trip.count = zext i32 %15 to i64
  br label %21

18:                                               ; preds = %13
  %19 = tail call ptr @__errno_location() #31
  store i32 22, ptr %19, align 4, !tbaa !60
  br label %44

20:                                               ; preds = %21
  %indvars.iv.next = add nuw nsw i64 %indvars.iv, 1
  %exitcond.not = icmp eq i64 %indvars.iv.next, %wide.trip.count
  br i1 %exitcond.not, label %._crit_edge, label %21, !llvm.loop !64

21:                                               ; preds = %.lr.ph, %20
  %indvars.iv = phi i64 [ 0, %.lr.ph ], [ %indvars.iv.next, %20 ]
  %22 = getelementptr inbounds nuw %struct.hwloc_internal_memattr_s, ptr %17, i64 %indvars.iv
  %23 = load ptr, ptr %22, align 8, !tbaa !32
  %24 = tail call i32 @strcmp(ptr noundef nonnull dereferenceable(1) %1, ptr noundef nonnull dereferenceable(1) %23) #30
  %.not36 = icmp eq i32 %24, 0
  br i1 %.not36, label %25, label %20

25:                                               ; preds = %21
  %26 = tail call ptr @__errno_location() #31
  store i32 16, ptr %26, align 4, !tbaa !60
  br label %44

._crit_edge:                                      ; preds = %20, %.preheader
  %27 = tail call noalias ptr @strdup(ptr noundef nonnull %1) #29
  %.not34 = icmp eq ptr %27, null
  br i1 %.not34, label %44, label %28

28:                                               ; preds = %._crit_edge
  %29 = getelementptr inbounds nuw i8, ptr %0, i64 752
  %30 = load ptr, ptr %29, align 8, !tbaa !31
  %31 = add i32 %15, 1
  %32 = zext i32 %31 to i64
  %33 = shl nuw nsw i64 %32, 5
  %34 = tail call ptr @realloc(ptr noundef %30, i64 noundef %33) #32
  %.not35 = icmp eq ptr %34, null
  br i1 %.not35, label %35, label %36

35:                                               ; preds = %28
  tail call void @free(ptr noundef nonnull %27) #29
  br label %44

36:                                               ; preds = %28
  %37 = load i32, ptr %14, align 4, !tbaa !3
  %38 = zext i32 %37 to i64
  %39 = getelementptr inbounds nuw %struct.hwloc_internal_memattr_s, ptr %34, i64 %38
  store ptr %27, ptr %39, align 8, !tbaa !32
  %40 = getelementptr inbounds nuw i8, ptr %39, i64 8
  store i64 %2, ptr %40, align 8, !tbaa !36
  %41 = getelementptr inbounds nuw i8, ptr %39, i64 16
  %42 = getelementptr inbounds nuw %struct.hwloc_internal_memattr_s, ptr %34, i64 %38, i32 2
  tail call void @llvm.memset.p0.i64(ptr noundef nonnull align 8 dereferenceable(16) %41, i8 0, i64 16, i1 false)
  store i32 2, ptr %42, align 8, !tbaa !37
  store i32 %37, ptr %3, align 4, !tbaa !60
  %43 = add i32 %37, 1
  store i32 %43, ptr %14, align 4, !tbaa !3
  store ptr %34, ptr %29, align 8, !tbaa !31
  br label %44

44:                                               ; preds = %._crit_edge, %36, %35, %25, %18, %11, %9, %5
  %.027 = phi i32 [ -1, %5 ], [ -1, %11 ], [ -1, %25 ], [ 0, %36 ], [ -1, %35 ], [ -1, %18 ], [ -1, %9 ], [ -1, %._crit_edge ]
  ret i32 %.027
}